target datalayout = "e-m:e-p270:32:32-p271:32:32-p272:64:64-i64:64-i128:128-f80:128-n8:16:32:64-S128"
target triple = "x86_64-pc-linux-gnu"

%struct.ArchivableStaticFieldInfo = type <{ ptr, ptr, ptr, i32, i8, [3 x i8] }>
%class.LogTagSet = type { ptr, i64, [5 x i32], [4 x i8], %class.LogOutputList, %class.LogDecorators, ptr }
%class.LogOutputList = type <{ [6 x ptr], i32, [4 x i8] }>
%class.LogDecorators = type { i32 }

@_ZN10HeapShared30_num_total_subgraph_recordingsE = hidden global i32 0, align 4
@_ZN10HeapShared22_num_total_walked_objsE = hidden global i32 0, align 4
@_ZN10HeapShared24_num_total_archived_objsE = hidden global i32 0, align 4
@_ZN10HeapShared27_num_total_recorded_klassesE = hidden global i32 0, align 4
@_ZN10HeapShared24_num_total_verificationsE = hidden global i32 0, align 4
@.str.82 = private unnamed_addr constant [31 x i8] c"Archived subgraph records = %d\00", align 1
@.str.83 = private unnamed_addr constant [20 x i8] c"  Walked %d objects\00", align 1
@.str.84 = private unnamed_addr constant [22 x i8] c"  Archived %d objects\00", align 1
@.str.85 = private unnamed_addr constant [22 x i8] c"  Recorded %d klasses\00", align 1
@_ZN16LogTagSetMappingILN6LogTag4typeE14ELS1_52ELS1_0ELS1_0ELS1_0ELS1_0EE7_tagsetE = linkonce_odr hidden global %class.LogTagSet zeroinitializer, comdat, align 8

; Function Attrs: mustprogress nounwind uwtable
define linkonce_odr hidden noundef zeroext i1 @_ZNK13LogOutputList8is_levelEN8LogLevel4typeE(ptr noundef nonnull align 8 dereferenceable(52) %0, i32 noundef %1) #1 comdat align 2 {
  %3 = alloca ptr, align 8
  %4 = alloca i32, align 4
  store ptr %0, ptr %3, align 8
  store i32 %1, ptr %4, align 4
  %5 = load ptr, ptr %3, align 8
  %6 = getelementptr inbounds %class.LogOutputList, ptr %5, i32 0, i32 0
  %7 = load i32, ptr %4, align 4
  %8 = zext i32 %7 to i64
  %9 = getelementptr inbounds [6 x ptr], ptr %6, i64 0, i64 %8
  %10 = load volatile ptr, ptr %9, align 8
  %11 = icmp ne ptr %10, null
  ret i1 %11
}

; Function Attrs: mustprogress nounwind uwtable
define linkonce_odr hidden noundef zeroext i1 @_ZNK9LogTagSet8is_levelEN8LogLevel4typeE(ptr noundef nonnull align 8 dereferenceable(112) %0, i32 noundef %1) #1 comdat align 2 {
  %3 = alloca ptr, align 8
  %4 = alloca i32, align 4
  store ptr %0, ptr %3, align 8
  store i32 %1, ptr %4, align 4
  %5 = load ptr, ptr %3, align 8
  %6 = getelementptr inbounds %class.LogTagSet, ptr %5, i32 0, i32 4
  %7 = load i32, ptr %4, align 4
  %8 = call noundef zeroext i1 @_ZNK13LogOutputList8is_levelEN8LogLevel4typeE(ptr noundef nonnull align 8 dereferenceable(52) %6, i32 noundef %7)
  ret i1 %8
}

; Function Attrs: mustprogress nounwind uwtable
define linkonce_odr hidden noundef nonnull align 8 dereferenceable(112) ptr @_ZN16LogTagSetMappingILN6LogTag4typeE14ELS1_52ELS1_0ELS1_0ELS1_0ELS1_0EE6tagsetEv() #1 comdat align 2 {
  ret ptr @_ZN16LogTagSetMappingILN6LogTag4typeE14ELS1_52ELS1_0ELS1_0ELS1_0ELS1_0EE7_tagsetE
}

; Function Attrs: mustprogress nounwind uwtable
define linkonce_odr hidden noundef zeroext i1 @_ZN7LogImplILN6LogTag4typeE14ELS1_52ELS1_0ELS1_0ELS1_0ELS1_0EE8is_levelEN8LogLevel4typeE(i32 noundef %0) #1 comdat align 2 {
  %2 = alloca i32, align 4
  store i32 %0, ptr %2, align 4
  %3 = call noundef nonnull align 8 dereferenceable(112) ptr @_ZN16LogTagSetMappingILN6LogTag4typeE14ELS1_52ELS1_0ELS1_0ELS1_0ELS1_0EE6tagsetEv()
  %4 = load i32, ptr %2, align 4
  %5 = call noundef zeroext i1 @_ZNK9LogTagSet8is_levelEN8LogLevel4typeE(ptr noundef nonnull align 8 dereferenceable(112) %3, i32 noundef %4)
  ret i1 %5
}

; Function Attrs: mustprogress nounwind uwtable
define linkonce_odr hidden noundef zeroext i1 @_ZN25ArchivableStaticFieldInfo5validEv(ptr noundef nonnull align 8 dereferenceable(29) %0) #1 comdat align 2 {
  %2 = alloca ptr, align 8
  store ptr %0, ptr %2, align 8
  %3 = load ptr, ptr %2, align 8
  %4 = getelementptr inbounds %struct.ArchivableStaticFieldInfo, ptr %3, i32 0, i32 0
  %5 = load ptr, ptr %4, align 8
  %6 = icmp ne ptr %5, null
  ret i1 %6
}

; Function Attrs: mustprogress nounwind uwtable
define hidden void @_ZN10HeapShared24archive_object_subgraphsEP25ArchivableStaticFieldInfob(ptr noundef %0, i1 noundef zeroext %1) #1 align 2 {
  %3 = alloca ptr, align 8
  %4 = alloca i8, align 1
  %5 = alloca i32, align 4
  %6 = alloca ptr, align 8
  %7 = alloca ptr, align 8
  %8 = alloca ptr, align 8
  store ptr %0, ptr %3, align 8
  %9 = zext i1 %1 to i8
  store i8 %9, ptr %4, align 1
  store i32 0, ptr @_ZN10HeapShared30_num_total_subgraph_recordingsE, align 4
  store i32 0, ptr @_ZN10HeapShared22_num_total_walked_objsE, align 4
  store i32 0, ptr @_ZN10HeapShared24_num_total_archived_objsE, align 4
  store i32 0, ptr @_ZN10HeapShared27_num_total_recorded_klassesE, align 4
  store i32 0, ptr @_ZN10HeapShared24_num_total_verificationsE, align 4
  store i32 0, ptr %5, align 4
  br label %10

10:                                               ; preds = %63, %2
  %11 = load ptr, ptr %3, align 8
  %12 = load i32, ptr %5, align 4
  %13 = sext i32 %12 to i64
  %14 = getelementptr inbounds %struct.ArchivableStaticFieldInfo, ptr %11, i64 %13
  %15 = call noundef zeroext i1 @_ZN25ArchivableStaticFieldInfo5validEv(ptr noundef nonnull align 8 dereferenceable(29) %14)
  br i1 %15, label %16, label %68

16:                                               ; preds = %10
  %17 = load ptr, ptr %3, align 8
  %18 = load i32, ptr %5, align 4
  %19 = sext i32 %18 to i64
  %20 = getelementptr inbounds %struct.ArchivableStaticFieldInfo, ptr %17, i64 %19
  store ptr %20, ptr %6, align 8
  %21 = load ptr, ptr %6, align 8
  %22 = getelementptr inbounds %struct.ArchivableStaticFieldInfo, ptr %21, i32 0, i32 0
  %23 = load ptr, ptr %22, align 8
  store ptr %23, ptr %7, align 8
  %24 = load ptr, ptr %6, align 8
  %25 = getelementptr inbounds %struct.ArchivableStaticFieldInfo, ptr %24, i32 0, i32 2
  %26 = load ptr, ptr %25, align 8
  %27 = load ptr, ptr %7, align 8
  %28 = load i8, ptr %4, align 1
  %29 = trunc i8 %28 to i1
  call void @_ZN10HeapShared24start_recording_subgraphEP13InstanceKlassPKcb(ptr noundef %26, ptr noundef %27, i1 noundef zeroext %29)
  br label %30

30:                                               ; preds = %60, %16
  %31 = load ptr, ptr %3, align 8
  %32 = load i32, ptr %5, align 4
  %33 = sext i32 %32 to i64
  %34 = getelementptr inbounds %struct.ArchivableStaticFieldInfo, ptr %31, i64 %33
  %35 = call noundef zeroext i1 @_ZN25ArchivableStaticFieldInfo5validEv(ptr noundef nonnull align 8 dereferenceable(29) %34)
  br i1 %35, label %36, label %63

36:                                               ; preds = %30
  %37 = load ptr, ptr %3, align 8
  %38 = load i32, ptr %5, align 4
  %39 = sext i32 %38 to i64
  %40 = getelementptr inbounds %struct.ArchivableStaticFieldInfo, ptr %37, i64 %39
  store ptr %40, ptr %8, align 8
  %41 = load ptr, ptr %8, align 8
  %42 = getelementptr inbounds %struct.ArchivableStaticFieldInfo, ptr %41, i32 0, i32 0
  %43 = load ptr, ptr %42, align 8
  %44 = load ptr, ptr %7, align 8
  %45 = icmp ne ptr %43, %44
  br i1 %45, label %46, label %47

46:                                               ; preds = %36
  br label %63

47:                                               ; preds = %36
  %48 = load ptr, ptr %8, align 8
  %49 = getelementptr inbounds %struct.ArchivableStaticFieldInfo, ptr %48, i32 0, i32 2
  %50 = load ptr, ptr %49, align 8
  %51 = load ptr, ptr %8, align 8
  %52 = getelementptr inbounds %struct.ArchivableStaticFieldInfo, ptr %51, i32 0, i32 0
  %53 = load ptr, ptr %52, align 8
  %54 = load ptr, ptr %8, align 8
  %55 = getelementptr inbounds %struct.ArchivableStaticFieldInfo, ptr %54, i32 0, i32 3
  %56 = load i32, ptr %55, align 8
  %57 = load ptr, ptr %8, align 8
  %58 = getelementptr inbounds %struct.ArchivableStaticFieldInfo, ptr %57, i32 0, i32 1
  %59 = load ptr, ptr %58, align 8
  call void @_ZN10HeapShared43archive_reachable_objects_from_static_fieldEP13InstanceKlassPKciS3_(ptr noundef %50, ptr noundef %53, i32 noundef %56, ptr noundef %59)
  br label %60

60:                                               ; preds = %47
  %61 = load i32, ptr %5, align 4
  %62 = add nsw i32 %61, 1
  store i32 %62, ptr %5, align 4
  br label %30, !llvm.loop !14

63:                                               ; preds = %46, %30
  %64 = load ptr, ptr %6, align 8
  %65 = getelementptr inbounds %struct.ArchivableStaticFieldInfo, ptr %64, i32 0, i32 2
  %66 = load ptr, ptr %65, align 8
  %67 = load ptr, ptr %7, align 8
  call void @_ZN10HeapShared23done_recording_subgraphEP13InstanceKlassPKc(ptr noundef %66, ptr noundef %67)
  br label %10, !llvm.loop !15

68:                                               ; preds = %10
  %69 = call noundef zeroext i1 @_ZN7LogImplILN6LogTag4typeE14ELS1_52ELS1_0ELS1_0ELS1_0ELS1_0EE8is_levelEN8LogLevel4typeE(i32 noundef 3)
  br i1 %69, label %71, label %70

70:                                               ; preds = %68
  br label %73

71:                                               ; preds = %68
  %72 = load i32, ptr @_ZN10HeapShared30_num_total_subgraph_recordingsE, align 4
  call void (ptr, ...) @_ZN7LogImplILN6LogTag4typeE14ELS1_52ELS1_0ELS1_0ELS1_0ELS1_0EE5writeILN8LogLevel4typeE3EEEvPKcz(ptr noundef @.str.82, i32 noundef %72)
  br label %73

73:                                               ; preds = %71, %70
  %74 = call noundef zeroext i1 @_ZN7LogImplILN6LogTag4typeE14ELS1_52ELS1_0ELS1_0ELS1_0ELS1_0EE8is_levelEN8LogLevel4typeE(i32 noundef 3)
  br i1 %74, label %76, label %75

75:                                               ; preds = %73
  br label %78

76:                                               ; preds = %73
  %77 = load i32, ptr @_ZN10HeapShared22_num_total_walked_objsE, align 4
  call void (ptr, ...) @_ZN7LogImplILN6LogTag4typeE14ELS1_52ELS1_0ELS1_0ELS1_0ELS1_0EE5writeILN8LogLevel4typeE3EEEvPKcz(ptr noundef @.str.83, i32 noundef %77)
  br label %78

78:                                               ; preds = %76, %75
  %79 = call noundef zeroext i1 @_ZN7LogImplILN6LogTag4typeE14ELS1_52ELS1_0ELS1_0ELS1_0ELS1_0EE8is_levelEN8LogLevel4typeE(i32 noundef 3)
  br i1 %79, label %81, label %80

80:                                               ; preds = %78
  br label %83

81:                                               ; preds = %78
  %82 = load i32, ptr @_ZN10HeapShared24_num_total_archived_objsE, align 4
  call void (ptr, ...) @_ZN7LogImplILN6LogTag4typeE14ELS1_52ELS1_0ELS1_0ELS1_0ELS1_0EE5writeILN8LogLevel4typeE3EEEvPKcz(ptr noundef @.str.84, i32 noundef %82)
  br label %83

83:                                               ; preds = %81, %80
  %84 = call noundef zeroext i1 @_ZN7LogImplILN6LogTag4typeE14ELS1_52ELS1_0ELS1_0ELS1_0ELS1_0EE8is_levelEN8LogLevel4typeE(i32 noundef 3)
  br i1 %84, label %86, label %85

85:                                               ; preds = %83
  br label %88

86:                                               ; preds = %83
  %87 = load i32, ptr @_ZN10HeapShared27_num_total_recorded_klassesE, align 4
  call void (ptr, ...) @_ZN7LogImplILN6LogTag4typeE14ELS1_52ELS1_0ELS1_0ELS1_0ELS1_0EE5writeILN8LogLevel4typeE3EEEvPKcz(ptr noundef @.str.85, i32 noundef %87)
  br label %88

88:                                               ; preds = %86, %85
  ret void
}