; Function Attrs: mustprogress nounwind uwtable
define hidden void @_ZN10HeapShared24archive_object_subgraphsEP25ArchivableStaticFieldInfob(ptr nocapture noundef readonly %0, i1 noundef zeroext %1) local_unnamed_addr #2 align 2 {
  store i32 0, ptr @_ZN10HeapShared30_num_total_subgraph_recordingsE, align 4
  store i32 0, ptr @_ZN10HeapShared22_num_total_walked_objsE, align 4
  store i32 0, ptr @_ZN10HeapShared24_num_total_archived_objsE, align 4
  store i32 0, ptr @_ZN10HeapShared27_num_total_recorded_klassesE, align 4
  store i32 0, ptr @_ZN10HeapShared24_num_total_verificationsE, align 4
  %3 = load ptr, ptr %0, align 8
  %.not2128 = icmp eq ptr %3, null
  br i1 %.not2128, label %._crit_edge32, label %.lr.ph31

.lr.ph31:                                         ; preds = %2, %._crit_edge
  %4 = phi ptr [ %24, %._crit_edge ], [ %3, %2 ]
  %5 = phi ptr [ %23, %._crit_edge ], [ %0, %2 ]
  %.029 = phi i32 [ %.1.lcssa, %._crit_edge ], [ 0, %2 ]
  %6 = getelementptr inbounds i8, ptr %5, i64 16
  %7 = load ptr, ptr %6, align 8
  tail call void @_ZN10HeapShared24start_recording_subgraphEP13InstanceKlassPKcb(ptr noundef %7, ptr noundef nonnull %4, i1 noundef zeroext %1)
  %8 = sext i32 %.029 to i64
  %9 = getelementptr inbounds %struct.ArchivableStaticFieldInfo, ptr %0, i64 %8
  %10 = load ptr, ptr %9, align 8
  %.not26 = icmp eq ptr %10, %4
  br i1 %.not26, label %.lr.ph, label %._crit_edge

.lr.ph:                                           ; preds = %.lr.ph31, %.lr.ph
  %indvars.iv = phi i64 [ %indvars.iv.next, %.lr.ph ], [ %8, %.lr.ph31 ]
  %11 = phi ptr [ %20, %.lr.ph ], [ %10, %.lr.ph31 ]
  %12 = phi ptr [ %19, %.lr.ph ], [ %9, %.lr.ph31 ]
  %13 = getelementptr inbounds i8, ptr %12, i64 16
  %14 = load ptr, ptr %13, align 8
  %15 = getelementptr inbounds i8, ptr %12, i64 24
  %16 = load i32, ptr %15, align 8
  %17 = getelementptr inbounds i8, ptr %12, i64 8
  %18 = load ptr, ptr %17, align 8
  tail call void @_ZN10HeapShared43archive_reachable_objects_from_static_fieldEP13InstanceKlassPKciS3_(ptr noundef %14, ptr noundef nonnull %11, i32 noundef %16, ptr noundef %18)
  %indvars.iv.next = add nsw i64 %indvars.iv, 1
  %19 = getelementptr inbounds %struct.ArchivableStaticFieldInfo, ptr %0, i64 %indvars.iv.next
  %20 = load ptr, ptr %19, align 8
  %.not = icmp eq ptr %20, %4
  br i1 %.not, label %.lr.ph, label %._crit_edge.loopexit, !llvm.loop !31

._crit_edge.loopexit:                             ; preds = %.lr.ph
  %21 = trunc nsw i64 %indvars.iv.next to i32
  %sext = shl i64 %indvars.iv.next, 32
  %.pre = ashr exact i64 %sext, 32
  br label %._crit_edge

._crit_edge:                                      ; preds = %._crit_edge.loopexit, %.lr.ph31
  %.pre-phi = phi i64 [ %.pre, %._crit_edge.loopexit ], [ %8, %.lr.ph31 ]
  %.1.lcssa = phi i32 [ %21, %._crit_edge.loopexit ], [ %.029, %.lr.ph31 ]
  %22 = load ptr, ptr %6, align 8
  tail call void @_ZN10HeapShared23done_recording_subgraphEP13InstanceKlassPKc(ptr noundef %22, ptr noundef nonnull %4)
  %23 = getelementptr inbounds %struct.ArchivableStaticFieldInfo, ptr %0, i64 %.pre-phi
  %24 = load ptr, ptr %23, align 8
  %.not21 = icmp eq ptr %24, null
  br i1 %.not21, label %._crit_edge32, label %.lr.ph31, !llvm.loop !32

._crit_edge32:                                    ; preds = %._crit_edge, %2
  %25 = load volatile ptr, ptr getelementptr inbounds (i8, ptr @_ZN16LogTagSetMappingILN6LogTag4typeE14ELS1_52ELS1_0ELS1_0ELS1_0ELS1_0EE7_tagsetE, i64 64), align 8
  %.not22 = icmp eq ptr %25, null
  br i1 %.not22, label %28, label %26

26:                                               ; preds = %._crit_edge32
  %27 = load i32, ptr @_ZN10HeapShared30_num_total_subgraph_recordingsE, align 4
  tail call void (ptr, ...) @_ZN7LogImplILN6LogTag4typeE14ELS1_52ELS1_0ELS1_0ELS1_0ELS1_0EE5writeILN8LogLevel4typeE3EEEvPKcz(ptr noundef nonnull @.str.82, i32 noundef %27)
  br label %28

28:                                               ; preds = %._crit_edge32, %26
  %29 = load volatile ptr, ptr getelementptr inbounds (i8, ptr @_ZN16LogTagSetMappingILN6LogTag4typeE14ELS1_52ELS1_0ELS1_0ELS1_0ELS1_0EE7_tagsetE, i64 64), align 8
  %.not23 = icmp eq ptr %29, null
  br i1 %.not23, label %32, label %30

30:                                               ; preds = %28
  %31 = load i32, ptr @_ZN10HeapShared22_num_total_walked_objsE, align 4
  tail call void (ptr, ...) @_ZN7LogImplILN6LogTag4typeE14ELS1_52ELS1_0ELS1_0ELS1_0ELS1_0EE5writeILN8LogLevel4typeE3EEEvPKcz(ptr noundef nonnull @.str.83, i32 noundef %31)
  br label %32

32:                                               ; preds = %28, %30
  %33 = load volatile ptr, ptr getelementptr inbounds (i8, ptr @_ZN16LogTagSetMappingILN6LogTag4typeE14ELS1_52ELS1_0ELS1_0ELS1_0ELS1_0EE7_tagsetE, i64 64), align 8
  %.not24 = icmp eq ptr %33, null
  br i1 %.not24, label %36, label %34

34:                                               ; preds = %32
  %35 = load i32, ptr @_ZN10HeapShared24_num_total_archived_objsE, align 4
  tail call void (ptr, ...) @_ZN7LogImplILN6LogTag4typeE14ELS1_52ELS1_0ELS1_0ELS1_0ELS1_0EE5writeILN8LogLevel4typeE3EEEvPKcz(ptr noundef nonnull @.str.84, i32 noundef %35)
  br label %36

36:                                               ; preds = %32, %34
  %37 = load volatile ptr, ptr getelementptr inbounds (i8, ptr @_ZN16LogTagSetMappingILN6LogTag4typeE14ELS1_52ELS1_0ELS1_0ELS1_0ELS1_0EE7_tagsetE, i64 64), align 8
  %.not25 = icmp eq ptr %37, null
  br i1 %.not25, label %40, label %38

38:                                               ; preds = %36
  %39 = load i32, ptr @_ZN10HeapShared27_num_total_recorded_klassesE, align 4
  tail call void (ptr, ...) @_ZN7LogImplILN6LogTag4typeE14ELS1_52ELS1_0ELS1_0ELS1_0ELS1_0EE5writeILN8LogLevel4typeE3EEEvPKcz(ptr noundef nonnull @.str.85, i32 noundef %39)
  br label %40

40:                                               ; preds = %36, %38
  ret void
}